; Function Attrs: nounwind uwtable
define noalias nonnull ptr @l_Float_toISize___boxed(ptr noundef %0) local_unnamed_addr #0 {
  %2 = getelementptr i8, ptr %0, i64 8
  %.val = load double, ptr %2, align 8, !tbaa !4
  %3 = ptrtoint ptr %0 to i64
  %4 = and i64 %3, 1
  %.not = icmp eq i64 %4, 0
  br i1 %.not, label %5, label %lean_dec.exit

5:                                                ; preds = %1
  %6 = load i32, ptr %0, align 4, !tbaa !8
  %7 = icmp sgt i32 %6, 1
  br i1 %7, label %8, label %10, !prof !11

8:                                                ; preds = %5
  %9 = add nsw i32 %6, -1
  store i32 %9, ptr %0, align 4, !tbaa !8
  br label %lean_dec.exit

10:                                               ; preds = %5
  %.not.i = icmp eq i32 %6, 0
  br i1 %.not.i, label %lean_dec.exit, label %11

11:                                               ; preds = %10
  tail call void @lean_dec_ref_cold(ptr noundef nonnull %0) #3
  br label %lean_dec.exit

lean_dec.exit:                                    ; preds = %11, %10, %8, %1
  %12 = tail call zeroext i8 @lean_float_isnan(double noundef %.val) #3
  %.not.i4 = icmp eq i8 %12, 0
  br i1 %.not.i4, label %13, label %lean_float_to_isize.exit

13:                                               ; preds = %lean_dec.exit
  %14 = fcmp ogt double %.val, 0xC3E0000000000000
  %15 = fcmp olt double %.val, 0x43E0000000000000
  %16 = fptosi double %.val to i64
  %17 = select i1 %15, i64 %16, i64 9223372036854775807
  %18 = select i1 %14, i64 %17, i64 -9223372036854775808
  br label %lean_float_to_isize.exit

lean_float_to_isize.exit:                         ; preds = %lean_dec.exit, %13
  %.0.i = phi i64 [ %18, %13 ], [ 0, %lean_dec.exit ]
  tail call void @lean_inc_heartbeat() #3
  %19 = tail call noalias ptr @mi_malloc_small(i64 noundef 16) #3
  %20 = icmp eq ptr %19, null
  br i1 %20, label %21, label %lean_box_usize.exit

21:                                               ; preds = %lean_float_to_isize.exit
  tail call void @lean_internal_panic_out_of_memory() #4
  unreachable

lean_box_usize.exit:                              ; preds = %lean_float_to_isize.exit
  %22 = getelementptr inbounds nuw i8, ptr %19, i64 4
  store i32 1, ptr %19, align 4, !tbaa !8
  store i32 16, ptr %22, align 4
  %23 = getelementptr inbounds nuw i8, ptr %19, i64 8
  store i64 %.0.i, ptr %23, align 8, !tbaa !12
  ret ptr %19
}